target datalayout = "e-m:e-p270:32:32-p271:32:32-p272:64:64-i64:64-i128:128-f80:128-n8:16:32:64-S128"
target triple = "x86_64-pc-linux-gnu"

%struct.FrameRectangle = type { i32, i32, i32, i32 }
%struct.WebPAnimEncoderOptions = type { %struct.WebPMuxAnimParams, i32, i32, i32, i32, i32, [4 x i32] }
%struct.WebPMuxAnimParams = type { i32, i32 }
%struct.WebPAnimEncoder = type { i32, i32, %struct.WebPAnimEncoderOptions, %struct.FrameRectangle, %struct.WebPConfig, %struct.WebPConfig, ptr, %struct.WebPPicture, i32, %struct.WebPPicture, %struct.WebPPicture, ptr, i64, i64, i64, i64, i64, i32, i32, i32, i32, i32, i32, i32, i64, i64, ptr, [100 x i8] }
%struct.WebPConfig = type { i32, float, i32, i32, i32, float, i32, i32, i32, i32, i32, i32, i32, i32, i32, i32, i32, i32, i32, i32, i32, i32, i32, i32, i32, i32, i32, i32, i32 }
%struct.WebPPicture = type { i32, i32, i32, i32, ptr, ptr, ptr, i32, i32, ptr, i32, [2 x i32], ptr, i32, [3 x i32], ptr, ptr, i32, ptr, ptr, i32, ptr, ptr, [3 x i32], ptr, ptr, [8 x i32], ptr, ptr, [2 x ptr] }

@.str.6 = private unnamed_addr constant [29 x i8] c"ERROR assembling: NULL input\00", align 1
@.str.7 = private unnamed_addr constant [29 x i8] c"ERROR: No frames to assemble\00", align 1
@.str.8 = private unnamed_addr constant [22 x i8] c"ERROR assembling WebP\00", align 1
@.str.12 = private unnamed_addr constant [4 x i8] c"%s.\00", align 1
@.str.16 = private unnamed_addr constant [8 x i8] c"%s: %d.\00", align 1

; Function Attrs: nounwind uwtable
define internal void @MarkError2(ptr noundef %0, ptr noundef %1, i32 noundef %2) #0 {
  %4 = alloca ptr, align 8
  %5 = alloca ptr, align 8
  %6 = alloca i32, align 4
  store ptr %0, ptr %4, align 8, !tbaa !17
  store ptr %1, ptr %5, align 8, !tbaa !85
  store i32 %2, ptr %6, align 4, !tbaa !8
  %7 = load ptr, ptr %4, align 8, !tbaa !17
  %8 = getelementptr inbounds nuw %struct.WebPAnimEncoder, ptr %7, i32 0, i32 27
  %9 = getelementptr inbounds [100 x i8], ptr %8, i64 0, i64 0
  %10 = load ptr, ptr %5, align 8, !tbaa !85
  %11 = load i32, ptr %6, align 4, !tbaa !8
  %12 = call i32 (ptr, i64, ptr, ...) @snprintf(ptr noundef %9, i64 noundef 100, ptr noundef @.str.16, ptr noundef %10, i32 noundef %11) #8
  %13 = icmp slt i32 %12, 0
  br i1 %13, label %14, label %15

14:                                               ; preds = %3
  br label %15

15:                                               ; preds = %14, %3
  ret void
}

; Function Attrs: nounwind uwtable
define internal void @MarkError(ptr noundef %0, ptr noundef %1) #0 {
  %3 = alloca ptr, align 8
  %4 = alloca ptr, align 8
  store ptr %0, ptr %3, align 8, !tbaa !17
  store ptr %1, ptr %4, align 8, !tbaa !85
  %5 = load ptr, ptr %3, align 8, !tbaa !17
  %6 = getelementptr inbounds nuw %struct.WebPAnimEncoder, ptr %5, i32 0, i32 27
  %7 = getelementptr inbounds [100 x i8], ptr %6, i64 0, i64 0
  %8 = load ptr, ptr %4, align 8, !tbaa !85
  %9 = call i32 (ptr, i64, ptr, ...) @snprintf(ptr noundef %7, i64 noundef 100, ptr noundef @.str.12, ptr noundef %8) #8
  %10 = icmp slt i32 %9, 0
  br i1 %10, label %11, label %12

11:                                               ; preds = %2
  br label %12

12:                                               ; preds = %11, %2
  ret void
}

; Function Attrs: nounwind uwtable
define internal void @MarkNoError(ptr noundef %0) #0 {
  %2 = alloca ptr, align 8
  store ptr %0, ptr %2, align 8, !tbaa !17
  %3 = load ptr, ptr %2, align 8, !tbaa !17
  %4 = getelementptr inbounds nuw %struct.WebPAnimEncoder, ptr %3, i32 0, i32 27
  %5 = getelementptr inbounds [100 x i8], ptr %4, i64 0, i64 0
  store i8 0, ptr %5, align 8, !tbaa !20
  ret void
}

; Function Attrs: nounwind uwtable
define i32 @WebPAnimEncoderAssemble(ptr noundef %0, ptr noundef %1) #0 {
  %3 = alloca i32, align 4
  %4 = alloca ptr, align 8
  %5 = alloca ptr, align 8
  %6 = alloca ptr, align 8
  %7 = alloca i32, align 4
  %8 = alloca i32, align 4
  %9 = alloca double, align 8
  %10 = alloca i32, align 4
  store ptr %0, ptr %4, align 8, !tbaa !17
  store ptr %1, ptr %5, align 8, !tbaa !116
  call void @llvm.lifetime.start.p0(i64 8, ptr %6) #8
  call void @llvm.lifetime.start.p0(i64 4, ptr %7) #8
  %11 = load ptr, ptr %4, align 8, !tbaa !17
  %12 = icmp eq ptr %11, null
  br i1 %12, label %13, label %14

13:                                               ; preds = %2
  store i32 0, ptr %3, align 4
  store i32 1, ptr %8, align 4
  br label %126

14:                                               ; preds = %2
  %15 = load ptr, ptr %4, align 8, !tbaa !17
  call void @MarkNoError(ptr noundef %15)
  %16 = load ptr, ptr %5, align 8, !tbaa !116
  %17 = icmp eq ptr %16, null
  br i1 %17, label %18, label %20

18:                                               ; preds = %14
  %19 = load ptr, ptr %4, align 8, !tbaa !17
  call void @MarkError(ptr noundef %19, ptr noundef @.str.6)
  store i32 0, ptr %3, align 4
  store i32 1, ptr %8, align 4
  br label %126

20:                                               ; preds = %14
  %21 = load ptr, ptr %4, align 8, !tbaa !17
  %22 = getelementptr inbounds nuw %struct.WebPAnimEncoder, ptr %21, i32 0, i32 24
  %23 = load i64, ptr %22, align 8, !tbaa !115
  %24 = icmp eq i64 %23, 0
  br i1 %24, label %25, label %27

25:                                               ; preds = %20
  %26 = load ptr, ptr %4, align 8, !tbaa !17
  call void @MarkError(ptr noundef %26, ptr noundef @.str.7)
  store i32 0, ptr %3, align 4
  store i32 1, ptr %8, align 4
  br label %126

27:                                               ; preds = %20
  %28 = load ptr, ptr %4, align 8, !tbaa !17
  %29 = getelementptr inbounds nuw %struct.WebPAnimEncoder, ptr %28, i32 0, i32 23
  %30 = load i32, ptr %29, align 8, !tbaa !46
  %31 = icmp ne i32 %30, 0
  br i1 %31, label %68, label %32

32:                                               ; preds = %27
  %33 = load ptr, ptr %4, align 8, !tbaa !17
  %34 = getelementptr inbounds nuw %struct.WebPAnimEncoder, ptr %33, i32 0, i32 24
  %35 = load i64, ptr %34, align 8, !tbaa !115
  %36 = icmp ugt i64 %35, 1
  br i1 %36, label %37, label %68

37:                                               ; preds = %32
  %38 = load ptr, ptr %4, align 8, !tbaa !17
  %39 = getelementptr inbounds nuw %struct.WebPAnimEncoder, ptr %38, i32 0, i32 14
  %40 = load i64, ptr %39, align 8, !tbaa !60
  %41 = icmp ugt i64 %40, 0
  br i1 %41, label %42, label %68

42:                                               ; preds = %37
  call void @llvm.lifetime.start.p0(i64 8, ptr %9) #8
  %43 = load ptr, ptr %4, align 8, !tbaa !17
  %44 = getelementptr inbounds nuw %struct.WebPAnimEncoder, ptr %43, i32 0, i32 20
  %45 = load i32, ptr %44, align 4, !tbaa !43
  %46 = load ptr, ptr %4, align 8, !tbaa !17
  %47 = getelementptr inbounds nuw %struct.WebPAnimEncoder, ptr %46, i32 0, i32 19
  %48 = load i32, ptr %47, align 8, !tbaa !42
  %49 = sub i32 %45, %48
  %50 = uitofp i32 %49 to double
  store double %50, ptr %9, align 8, !tbaa !118
  call void @llvm.lifetime.start.p0(i64 4, ptr %10) #8
  %51 = load double, ptr %9, align 8, !tbaa !118
  %52 = load ptr, ptr %4, align 8, !tbaa !17
  %53 = getelementptr inbounds nuw %struct.WebPAnimEncoder, ptr %52, i32 0, i32 24
  %54 = load i64, ptr %53, align 8, !tbaa !115
  %55 = sub i64 %54, 1
  %56 = uitofp i64 %55 to double
  %57 = fdiv double %51, %56
  %58 = fptosi double %57 to i32
  store i32 %58, ptr %10, align 4, !tbaa !8
  %59 = load ptr, ptr %4, align 8, !tbaa !17
  %60 = load i32, ptr %10, align 4, !tbaa !8
  %61 = call i32 @IncreasePreviousDuration(ptr noundef %59, i32 noundef %60)
  %62 = icmp ne i32 %61, 0
  br i1 %62, label %64, label %63

63:                                               ; preds = %42
  store i32 0, ptr %3, align 4
  store i32 1, ptr %8, align 4
  br label %65

64:                                               ; preds = %42
  store i32 0, ptr %8, align 4
  br label %65

65:                                               ; preds = %64, %63
  call void @llvm.lifetime.end.p0(i64 4, ptr %10) #8
  call void @llvm.lifetime.end.p0(i64 8, ptr %9) #8
  %66 = load i32, ptr %8, align 4
  switch i32 %66, label %126 [
    i32 0, label %67
  ]

67:                                               ; preds = %65
  br label %68

68:                                               ; preds = %67, %37, %32, %27
  %69 = load ptr, ptr %4, align 8, !tbaa !17
  %70 = getelementptr inbounds nuw %struct.WebPAnimEncoder, ptr %69, i32 0, i32 14
  %71 = load i64, ptr %70, align 8, !tbaa !60
  %72 = load ptr, ptr %4, align 8, !tbaa !17
  %73 = getelementptr inbounds nuw %struct.WebPAnimEncoder, ptr %72, i32 0, i32 15
  store i64 %71, ptr %73, align 8, !tbaa !61
  %74 = load ptr, ptr %4, align 8, !tbaa !17
  %75 = call i32 @FlushFrames(ptr noundef %74)
  %76 = icmp ne i32 %75, 0
  br i1 %76, label %78, label %77

77:                                               ; preds = %68
  store i32 0, ptr %3, align 4
  store i32 1, ptr %8, align 4
  br label %126

78:                                               ; preds = %68
  %79 = load ptr, ptr %4, align 8, !tbaa !17
  %80 = getelementptr inbounds nuw %struct.WebPAnimEncoder, ptr %79, i32 0, i32 26
  %81 = load ptr, ptr %80, align 8, !tbaa !40
  store ptr %81, ptr %6, align 8, !tbaa !120
  %82 = load ptr, ptr %6, align 8, !tbaa !120
  %83 = load ptr, ptr %4, align 8, !tbaa !17
  %84 = getelementptr inbounds nuw %struct.WebPAnimEncoder, ptr %83, i32 0, i32 0
  %85 = load i32, ptr %84, align 8, !tbaa !79
  %86 = load ptr, ptr %4, align 8, !tbaa !17
  %87 = getelementptr inbounds nuw %struct.WebPAnimEncoder, ptr %86, i32 0, i32 1
  %88 = load i32, ptr %87, align 4, !tbaa !80
  %89 = call i32 @WebPMuxSetCanvasSize(ptr noundef %82, i32 noundef %85, i32 noundef %88)
  store i32 %89, ptr %7, align 4, !tbaa !8
  %90 = load i32, ptr %7, align 4, !tbaa !8
  %91 = icmp ne i32 %90, 1
  br i1 %91, label %92, label %93

92:                                               ; preds = %78
  br label %123

93:                                               ; preds = %78
  %94 = load ptr, ptr %6, align 8, !tbaa !120
  %95 = load ptr, ptr %4, align 8, !tbaa !17
  %96 = getelementptr inbounds nuw %struct.WebPAnimEncoder, ptr %95, i32 0, i32 2
  %97 = getelementptr inbounds nuw %struct.WebPAnimEncoderOptions, ptr %96, i32 0, i32 0
  %98 = call i32 @WebPMuxSetAnimationParams(ptr noundef %94, ptr noundef %97)
  store i32 %98, ptr %7, align 4, !tbaa !8
  %99 = load i32, ptr %7, align 4, !tbaa !8
  %100 = icmp ne i32 %99, 1
  br i1 %100, label %101, label %102

101:                                              ; preds = %93
  br label %123

102:                                              ; preds = %93
  %103 = load ptr, ptr %6, align 8, !tbaa !120
  %104 = load ptr, ptr %5, align 8, !tbaa !116
  %105 = call i32 @WebPMuxAssemble(ptr noundef %103, ptr noundef %104)
  store i32 %105, ptr %7, align 4, !tbaa !8
  %106 = load i32, ptr %7, align 4, !tbaa !8
  %107 = icmp ne i32 %106, 1
  br i1 %107, label %108, label %109

108:                                              ; preds = %102
  br label %123

109:                                              ; preds = %102
  %110 = load ptr, ptr %4, align 8, !tbaa !17
  %111 = getelementptr inbounds nuw %struct.WebPAnimEncoder, ptr %110, i32 0, i32 25
  %112 = load i64, ptr %111, align 8, !tbaa !108
  %113 = icmp eq i64 %112, 1
  br i1 %113, label %114, label %122

114:                                              ; preds = %109
  %115 = load ptr, ptr %4, align 8, !tbaa !17
  %116 = load ptr, ptr %5, align 8, !tbaa !116
  %117 = call i32 @OptimizeSingleFrame(ptr noundef %115, ptr noundef %116)
  store i32 %117, ptr %7, align 4, !tbaa !8
  %118 = load i32, ptr %7, align 4, !tbaa !8
  %119 = icmp ne i32 %118, 1
  br i1 %119, label %120, label %121

120:                                              ; preds = %114
  br label %123

121:                                              ; preds = %114
  br label %122

122:                                              ; preds = %121, %109
  store i32 1, ptr %3, align 4
  store i32 1, ptr %8, align 4
  br label %126

123:                                              ; preds = %120, %108, %101, %92
  %124 = load ptr, ptr %4, align 8, !tbaa !17
  %125 = load i32, ptr %7, align 4, !tbaa !8
  call void @MarkError2(ptr noundef %124, ptr noundef @.str.8, i32 noundef %125)
  store i32 0, ptr %3, align 4
  store i32 1, ptr %8, align 4
  br label %126

126:                                              ; preds = %123, %122, %77, %65, %25, %18, %13
  call void @llvm.lifetime.end.p0(i64 4, ptr %7) #8
  call void @llvm.lifetime.end.p0(i64 8, ptr %6) #8
  %127 = load i32, ptr %3, align 4
  ret i32 %127
}