; Function Attrs: nounwind uwtable
define range(i32 0, 2) i32 @WebPAnimEncoderAssemble(ptr noundef %0, ptr noundef %1) local_unnamed_addr #1 {
  %3 = icmp eq ptr %0, null
  br i1 %3, label %58, label %4

4:                                                ; preds = %2
  %5 = getelementptr inbounds nuw i8, ptr %0, i64 1192
  store i8 0, ptr %5, align 8, !tbaa !15
  %6 = icmp eq ptr %1, null
  br i1 %6, label %7, label %9

7:                                                ; preds = %4
  %8 = tail call i32 (ptr, i64, ptr, ...) @snprintf(ptr noundef nonnull dereferenceable(1) %5, i64 noundef 100, ptr noundef nonnull @.str.12, ptr noundef nonnull @.str.6) #14
  br label %58

9:                                                ; preds = %4
  %10 = getelementptr inbounds nuw i8, ptr %0, i64 1168
  %11 = load i64, ptr %10, align 8, !tbaa !90
  %12 = icmp eq i64 %11, 0
  br i1 %12, label %13, label %15

13:                                               ; preds = %9
  %14 = tail call i32 (ptr, i64, ptr, ...) @snprintf(ptr noundef nonnull dereferenceable(1) %5, i64 noundef 100, ptr noundef nonnull @.str.12, ptr noundef nonnull @.str.7) #14
  br label %58

15:                                               ; preds = %9
  %16 = getelementptr inbounds nuw i8, ptr %0, i64 1160
  %17 = load i32, ptr %16, align 8, !tbaa !44
  %.not = icmp ne i32 %17, 0
  %.not45 = icmp eq i64 %11, 1
  %or.cond = or i1 %.not45, %.not
  br i1 %or.cond, label %33, label %18

18:                                               ; preds = %15
  %19 = getelementptr inbounds nuw i8, ptr %0, i64 1112
  %20 = load i64, ptr %19, align 8, !tbaa !67
  %.not46 = icmp eq i64 %20, 0
  br i1 %.not46, label %33, label %21

21:                                               ; preds = %18
  %22 = getelementptr inbounds nuw i8, ptr %0, i64 1148
  %23 = load i32, ptr %22, align 4, !tbaa !65
  %24 = getelementptr inbounds nuw i8, ptr %0, i64 1144
  %25 = load i32, ptr %24, align 8, !tbaa !68
  %26 = sub i32 %23, %25
  %27 = uitofp i32 %26 to double
  %28 = add i64 %11, -1
  %29 = uitofp i64 %28 to double
  %30 = fdiv double %27, %29
  %31 = fptosi double %30 to i32
  %32 = tail call fastcc i32 @IncreasePreviousDuration(ptr noundef %0, i32 noundef %31)
  %.not47.not = icmp eq i32 %32, 0
  br i1 %.not47.not, label %58, label %33

33:                                               ; preds = %21, %18, %15
  %34 = getelementptr inbounds nuw i8, ptr %0, i64 1112
  %35 = load i64, ptr %34, align 8, !tbaa !67
  %36 = getelementptr inbounds nuw i8, ptr %0, i64 1120
  store i64 %35, ptr %36, align 8, !tbaa !84
  %37 = tail call fastcc i32 @FlushFrames(ptr noundef %0)
  %.not48 = icmp eq i32 %37, 0
  br i1 %.not48, label %58, label %38

38:                                               ; preds = %33
  %39 = getelementptr inbounds nuw i8, ptr %0, i64 1184
  %40 = load ptr, ptr %39, align 8, !tbaa !42
  %41 = load i32, ptr %0, align 8, !tbaa !69
  %42 = getelementptr inbounds nuw i8, ptr %0, i64 4
  %43 = load i32, ptr %42, align 4, !tbaa !70
  %44 = tail call i32 @WebPMuxSetCanvasSize(ptr noundef %40, i32 noundef %41, i32 noundef %43) #14
  %.not49 = icmp eq i32 %44, 1
  br i1 %.not49, label %45, label %56

45:                                               ; preds = %38
  %46 = getelementptr inbounds nuw i8, ptr %0, i64 8
  %47 = tail call i32 @WebPMuxSetAnimationParams(ptr noundef %40, ptr noundef nonnull %46) #14
  %.not50 = icmp eq i32 %47, 1
  br i1 %.not50, label %48, label %56

48:                                               ; preds = %45
  %49 = tail call i32 @WebPMuxAssemble(ptr noundef %40, ptr noundef nonnull %1) #14
  %.not51 = icmp eq i32 %49, 1
  br i1 %.not51, label %50, label %56

50:                                               ; preds = %48
  %51 = getelementptr inbounds nuw i8, ptr %0, i64 1176
  %52 = load i64, ptr %51, align 8, !tbaa !105
  %53 = icmp eq i64 %52, 1
  br i1 %53, label %54, label %58

54:                                               ; preds = %50
  %55 = tail call fastcc i32 @OptimizeSingleFrame(ptr noundef %0, ptr noundef %1)
  %.not52 = icmp eq i32 %55, 1
  br i1 %.not52, label %58, label %56

56:                                               ; preds = %54, %48, %45, %38
  %.036 = phi i32 [ %44, %38 ], [ %47, %45 ], [ %49, %48 ], [ %55, %54 ]
  %57 = tail call i32 (ptr, i64, ptr, ...) @snprintf(ptr noundef nonnull dereferenceable(1) %5, i64 noundef 100, ptr noundef nonnull @.str.16, ptr noundef nonnull @.str.8, i32 noundef %.036) #14
  br label %58

58:                                               ; preds = %50, %54, %33, %2, %21, %56, %13, %7
  %.0 = phi i32 [ 0, %7 ], [ 0, %13 ], [ 0, %56 ], [ 0, %21 ], [ 0, %2 ], [ 0, %33 ], [ 1, %54 ], [ 1, %50 ]
  ret i32 %.0
}